; Function Attrs: alwaysinline norecurse nounwind uwtable
define internal void @_ZNK4ncnn13Scale_x86_fma15forward_inplaceERSt6vectorINS_3MatESaIS2_EERKNS_6OptionE.omp_outlined.2(ptr noalias noundef readonly captures(none) %0, ptr noalias readnone captures(none) %1, ptr noundef nonnull readonly align 4 captures(none) dereferenceable(4) %2, ptr noundef nonnull readonly align 4 captures(none) dereferenceable(4) %3, ptr noundef nonnull readonly align 8 captures(none) dereferenceable(8) %4, ptr noundef nonnull readonly align 8 captures(none) dereferenceable(8) %5, ptr noundef nonnull readonly align 8 captures(none) dereferenceable(8) %6) #10 {
  %8 = alloca i32, align 4
  %9 = alloca i32, align 4
  %10 = alloca i32, align 4
  %11 = alloca i32, align 4
  %12 = load i32, ptr %3, align 4, !tbaa !23
  %13 = load i32, ptr %2, align 4, !tbaa !23
  %14 = icmp slt i32 %12, %13
  br i1 %14, label %15, label %39

15:                                               ; preds = %7
  %16 = xor i32 %12, -1
  %17 = add i32 %13, %16
  call void @llvm.lifetime.start.p0(i64 4, ptr nonnull %8) #6
  store i32 0, ptr %8, align 4, !tbaa !23
  call void @llvm.lifetime.start.p0(i64 4, ptr nonnull %9) #6
  store i32 %17, ptr %9, align 4, !tbaa !23
  call void @llvm.lifetime.start.p0(i64 4, ptr nonnull %10) #6
  store i32 1, ptr %10, align 4, !tbaa !23
  call void @llvm.lifetime.start.p0(i64 4, ptr nonnull %11) #6
  store i32 0, ptr %11, align 4, !tbaa !23
  %18 = load i32, ptr %0, align 4, !tbaa !23
  call void @__kmpc_for_static_init_4u(ptr nonnull @1, i32 %18, i32 34, ptr nonnull %11, ptr nonnull %8, ptr nonnull %9, ptr nonnull %10, i32 1, i32 1)
  %19 = load i32, ptr %9, align 4, !tbaa !23
  %20 = call i32 @llvm.umin.i32(i32 %19, i32 %17)
  store i32 %20, ptr %9, align 4, !tbaa !23
  %21 = load i32, ptr %8, align 4, !tbaa !23
  %22 = add i32 %20, 1
  %23 = icmp ult i32 %21, %22
  br i1 %23, label %.lr.ph, label %._crit_edge

.lr.ph:                                           ; preds = %15
  %24 = load ptr, ptr %4, align 8, !tbaa !28
  %25 = load ptr, ptr %5, align 8, !tbaa !28
  %26 = load ptr, ptr %6, align 8, !tbaa !28
  br label %27

27:                                               ; preds = %.lr.ph, %27
  %.023 = phi i32 [ %21, %.lr.ph ], [ %38, %27 ]
  %28 = add i32 %.023, %12
  %29 = sext i32 %28 to i64
  %30 = getelementptr inbounds float, ptr %24, i64 %29
  %31 = load float, ptr %30, align 4, !tbaa !50
  %32 = getelementptr inbounds float, ptr %25, i64 %29
  %33 = load float, ptr %32, align 4, !tbaa !50
  %34 = fmul fast float %33, %31
  %35 = getelementptr inbounds float, ptr %26, i64 %29
  %36 = load float, ptr %35, align 4, !tbaa !50
  %37 = fadd fast float %36, %34
  store float %37, ptr %30, align 4, !tbaa !50
  %38 = add nuw i32 %.023, 1
  %exitcond.not = icmp eq i32 %.023, %20
  br i1 %exitcond.not, label %._crit_edge, label %27

._crit_edge:                                      ; preds = %27, %15
  call void @__kmpc_for_static_fini(ptr nonnull @1, i32 %18)
  call void @llvm.lifetime.end.p0(i64 4, ptr nonnull %11) #6
  call void @llvm.lifetime.end.p0(i64 4, ptr nonnull %10) #6
  call void @llvm.lifetime.end.p0(i64 4, ptr nonnull %9) #6
  call void @llvm.lifetime.end.p0(i64 4, ptr nonnull %8) #6
  br label %39

39:                                               ; preds = %._crit_edge, %7
  ret void
}